target datalayout = "e-m:e-p270:32:32-p271:32:32-p272:64:64-i64:64-i128:128-f80:128-n8:16:32:64-S128"
target triple = "x86_64-pc-linux-gnu"

%struct.Agraph_s = type { %struct.Agobj_s, %struct.Agdesc_s, %struct._dtlink_s, %struct._dtlink_s, ptr, ptr, ptr, ptr, ptr, ptr, ptr, ptr, ptr }
%struct.Agobj_s = type { %struct.Agtag_s, ptr }
%struct.Agtag_s = type { i32, i64 }
%struct.Agdesc_s = type { i8, [3 x i8] }
%struct._dtlink_s = type { ptr, %union.anon }
%union.anon = type { ptr }
%struct.Agclos_s = type { %struct.Agdisc_s, %struct.Agdstate_s, ptr, [3 x i64], ptr, [3 x ptr], [3 x ptr] }
%struct.Agdisc_s = type { ptr, ptr }
%struct.Agdstate_s = type { ptr }
%struct.Agiodisc_s = type { ptr, ptr, ptr }

@.str.25 = private unnamed_addr constant [13 x i8] c"_%lu_SUSPECT\00", align 1

; Function Attrs: nounwind uwtable
define internal i32 @ioput(ptr noundef %0, ptr noundef %1, ptr noundef %2) #0 {
  %4 = alloca ptr, align 8
  %5 = alloca ptr, align 8
  %6 = alloca ptr, align 8
  store ptr %0, ptr %4, align 8
  store ptr %1, ptr %5, align 8
  store ptr %2, ptr %6, align 8
  %7 = load ptr, ptr %4, align 8
  %8 = getelementptr inbounds %struct.Agraph_s, ptr %7, i32 0, i32 12
  %9 = load ptr, ptr %8, align 8
  %10 = getelementptr inbounds %struct.Agclos_s, ptr %9, i32 0, i32 0
  %11 = getelementptr inbounds %struct.Agdisc_s, ptr %10, i32 0, i32 1
  %12 = load ptr, ptr %11, align 8
  %13 = getelementptr inbounds %struct.Agiodisc_s, ptr %12, i32 0, i32 1
  %14 = load ptr, ptr %13, align 8
  %15 = load ptr, ptr %5, align 8
  %16 = load ptr, ptr %6, align 8
  %17 = call i32 %14(ptr noundef %15, ptr noundef %16)
  ret i32 %17
}

; Function Attrs: nounwind uwtable
define internal i32 @write_canonstr(ptr noundef %0, ptr noundef %1, ptr noundef %2) #0 {
  %4 = alloca ptr, align 8
  %5 = alloca ptr, align 8
  %6 = alloca ptr, align 8
  %7 = alloca ptr, align 8
  %8 = alloca i32, align 4
  store ptr %0, ptr %4, align 8
  store ptr %1, ptr %5, align 8
  store ptr %2, ptr %6, align 8
  %9 = load ptr, ptr %4, align 8
  %10 = load ptr, ptr %6, align 8
  %11 = call ptr @agstrdup(ptr noundef %9, ptr noundef %10)
  store ptr %11, ptr %7, align 8
  %12 = load ptr, ptr %4, align 8
  %13 = load ptr, ptr %5, align 8
  %14 = load ptr, ptr %7, align 8
  %15 = call i32 @_write_canonstr(ptr noundef %12, ptr noundef %13, ptr noundef %14, i1 noundef zeroext true)
  store i32 %15, ptr %8, align 4
  %16 = load ptr, ptr %4, align 8
  %17 = load ptr, ptr %7, align 8
  %18 = call i32 @agstrfree(ptr noundef %16, ptr noundef %17)
  %19 = load i32, ptr %8, align 4
  ret i32 %19
}

; Function Attrs: nounwind uwtable
define internal i32 @write_nodename(ptr noundef %0, ptr noundef %1) #0 {
  %3 = alloca i32, align 4
  %4 = alloca ptr, align 8
  %5 = alloca ptr, align 8
  %6 = alloca ptr, align 8
  %7 = alloca ptr, align 8
  %8 = alloca [30 x i8], align 16
  store ptr %0, ptr %4, align 8
  store ptr %1, ptr %5, align 8
  %9 = load ptr, ptr %4, align 8
  %10 = call ptr @agnameof(ptr noundef %9)
  store ptr %10, ptr %6, align 8
  %11 = load ptr, ptr %4, align 8
  %12 = call ptr @agraphof(ptr noundef %11)
  store ptr %12, ptr %7, align 8
  %13 = load ptr, ptr %6, align 8
  %14 = icmp ne ptr %13, null
  br i1 %14, label %15, label %23

15:                                               ; preds = %2
  %16 = load ptr, ptr %7, align 8
  %17 = load ptr, ptr %5, align 8
  %18 = load ptr, ptr %6, align 8
  %19 = call i32 @write_canonstr(ptr noundef %16, ptr noundef %17, ptr noundef %18)
  %20 = icmp eq i32 %19, -1
  br i1 %20, label %21, label %22

21:                                               ; preds = %15
  store i32 -1, ptr %3, align 4
  br label %38

22:                                               ; preds = %15
  br label %37

23:                                               ; preds = %2
  %24 = getelementptr inbounds [30 x i8], ptr %8, i64 0, i64 0
  %25 = load ptr, ptr %4, align 8
  %26 = getelementptr inbounds %struct.Agobj_s, ptr %25, i32 0, i32 0
  %27 = getelementptr inbounds %struct.Agtag_s, ptr %26, i32 0, i32 1
  %28 = load i64, ptr %27, align 8
  %29 = call i32 (ptr, i64, ptr, ...) @snprintf(ptr noundef %24, i64 noundef 30, ptr noundef @.str.25, i64 noundef %28) #5
  %30 = load ptr, ptr %7, align 8
  %31 = load ptr, ptr %5, align 8
  %32 = getelementptr inbounds [30 x i8], ptr %8, i64 0, i64 0
  %33 = call i32 @ioput(ptr noundef %30, ptr noundef %31, ptr noundef %32)
  %34 = icmp eq i32 %33, -1
  br i1 %34, label %35, label %36

35:                                               ; preds = %23
  store i32 -1, ptr %3, align 4
  br label %38

36:                                               ; preds = %23
  br label %37

37:                                               ; preds = %36, %22
  store i32 0, ptr %3, align 4
  br label %38

38:                                               ; preds = %37, %35, %21
  %39 = load i32, ptr %3, align 4
  ret i32 %39
}