; Function Attrs: nounwind uwtable
define internal fastcc range(i32 -1, 1) i32 @write_nodename(ptr noundef %0, ptr noundef %1) unnamed_addr #0 {
  %3 = alloca [30 x i8], align 16
  %4 = tail call ptr @agnameof(ptr noundef %0) #9
  %5 = tail call ptr @agraphof(ptr noundef %0) #9
  %.not = icmp eq ptr %4, null
  br i1 %.not, label %11, label %6

6:                                                ; preds = %2
  %7 = tail call ptr @agstrdup(ptr noundef %5, ptr noundef nonnull %4) #9
  %8 = tail call fastcc i32 @_write_canonstr(ptr noundef %5, ptr noundef %1, ptr noundef %7, i1 noundef zeroext true)
  %9 = tail call i32 @agstrfree(ptr noundef %5, ptr noundef %7) #9
  %10 = icmp eq i32 %8, -1
  br i1 %10, label %21, label %20

11:                                               ; preds = %2
  %12 = getelementptr inbounds nuw i8, ptr %0, i64 8
  %13 = load i64, ptr %12, align 8
  %14 = call i32 (ptr, i64, ptr, ...) @snprintf(ptr noundef nonnull dereferenceable(1) %3, i64 noundef 30, ptr noundef nonnull @.str.25, i64 noundef %13) #9
  %15 = getelementptr i8, ptr %5, i64 128
  %.val = load ptr, ptr %15, align 8
  %16 = getelementptr i8, ptr %.val, i64 8
  %.val.val = load ptr, ptr %16, align 8
  %17 = getelementptr i8, ptr %.val.val, i64 8
  %.val.val.val = load ptr, ptr %17, align 8
  %18 = call i32 %.val.val.val(ptr noundef %1, ptr noundef nonnull %3) #9
  %19 = icmp eq i32 %18, -1
  br i1 %19, label %21, label %20

20:                                               ; preds = %11, %6
  br label %21

21:                                               ; preds = %11, %6, %20
  %.0 = phi i32 [ 0, %20 ], [ -1, %6 ], [ -1, %11 ]
  ret i32 %.0
}